target datalayout = "e-m:e-p270:32:32-p271:32:32-p272:64:64-i64:64-i128:128-f80:128-n8:16:32:64-S128"
target triple = "x86_64-pc-linux-gnu"

%struct.H5FD_core_t = type { %struct.H5FD_t, ptr, ptr, i64, i64, i64, i8, i8, i64, i8, i32, i64, i64, i8, %struct.H5FD_file_image_callbacks_t, ptr }
%struct.H5FD_t = type { i64, ptr, i64, i32, i64, i64, i64, i64, i64, i8 }
%struct.H5FD_file_image_callbacks_t = type { ptr, ptr, ptr, ptr, ptr, ptr, ptr }

@H5FD_init_g = external global i8, align 1
@H5_libterm_g = external global i8, align 1
@.str.1 = private unnamed_addr constant [102 x i8] c"generated/home/dtcxzyw/WorkSpace/Projects/compilers/llvm-opt-benchmark/bench/hdf5/hdf5/src/H5FDcore.c\00", align 1
@H5E_OVERFLOW_g = external global i64, align 8
@H5E_IO_g = external global i64, align 8
@__func__.H5FD__core_read = private unnamed_addr constant [16 x i8] c"H5FD__core_read\00", align 1
@.str.42 = private unnamed_addr constant [24 x i8] c"file address overflowed\00", align 1

; Function Attrs: nounwind uwtable
define internal i32 @H5FD__core_read(ptr noundef %0, i32 noundef %1, i64 noundef %2, i64 noundef %3, i64 noundef %4, ptr noundef %5) #0 {
  %7 = alloca ptr, align 8
  %8 = alloca i32, align 4
  %9 = alloca i64, align 8
  %10 = alloca i64, align 8
  %11 = alloca i64, align 8
  %12 = alloca ptr, align 8
  %13 = alloca ptr, align 8
  %14 = alloca i32, align 4
  %15 = alloca i8, align 1
  %16 = alloca i64, align 8
  store ptr %0, ptr %7, align 8, !tbaa !29
  store i32 %1, ptr %8, align 4, !tbaa !3
  store i64 %2, ptr %9, align 8, !tbaa !11
  store i64 %3, ptr %10, align 8, !tbaa !11
  store i64 %4, ptr %11, align 8, !tbaa !11
  store ptr %5, ptr %12, align 8, !tbaa !33
  call void @llvm.lifetime.start.p0(i64 8, ptr %13) #12
  %17 = load ptr, ptr %7, align 8, !tbaa !29
  store ptr %17, ptr %13, align 8, !tbaa !31
  call void @llvm.lifetime.start.p0(i64 4, ptr %14) #12
  store i32 0, ptr %14, align 4, !tbaa !3
  call void @llvm.lifetime.start.p0(i64 1, ptr %15) #12
  store i8 0, ptr %15, align 1, !tbaa !7
  %18 = load i8, ptr @H5FD_init_g, align 1, !tbaa !7, !range !9, !noundef !10
  %19 = trunc i8 %18 to i1
  br i1 %19, label %24, label %20

20:                                               ; preds = %6
  %21 = load i8, ptr @H5_libterm_g, align 1, !tbaa !7, !range !9, !noundef !10
  %22 = trunc i8 %21 to i1
  %23 = xor i1 %22, true
  br label %24

24:                                               ; preds = %20, %6
  %25 = phi i1 [ true, %6 ], [ %23, %20 ]
  %26 = xor i1 %25, true
  %27 = xor i1 %26, true
  %28 = zext i1 %27 to i32
  %29 = sext i32 %28 to i64
  %30 = call i64 @llvm.expect.i64(i64 %29, i64 1)
  %31 = icmp ne i64 %30, 0
  br i1 %31, label %32, label %141

32:                                               ; preds = %24
  %33 = load i64, ptr %10, align 8, !tbaa !11
  %34 = icmp eq i64 -1, %33
  br i1 %34, label %35, label %54

35:                                               ; preds = %32
  br label %36

36:                                               ; preds = %35
  br label %37

37:                                               ; preds = %36
  br label %38

38:                                               ; preds = %37
  %39 = load i64, ptr @H5E_IO_g, align 8, !tbaa !11
  %40 = load i64, ptr @H5E_OVERFLOW_g, align 8, !tbaa !11
  %41 = call i32 (ptr, ptr, i32, i64, i64, ptr, ...) @H5E_printf_stack(ptr noundef @.str.1, ptr noundef @__func__.H5FD__core_read, i32 noundef 1294, i64 noundef %39, i64 noundef %40, ptr noundef @.str.42)
  br label %42

42:                                               ; preds = %38
  br label %43

43:                                               ; preds = %42
  store i8 1, ptr %15, align 1, !tbaa !7
  %44 = load i8, ptr %15, align 1, !tbaa !7, !range !9, !noundef !10
  %45 = trunc i8 %44 to i1
  %46 = zext i1 %45 to i8
  store i8 %46, ptr %15, align 1, !tbaa !7
  br label %47

47:                                               ; preds = %43
  br label %48

48:                                               ; preds = %47
  br label %49

49:                                               ; preds = %48
  store i32 -1, ptr %14, align 4, !tbaa !3
  br label %140

50:                                               ; No predecessors!
  br label %51

51:                                               ; preds = %50
  br label %52

52:                                               ; preds = %51
  br label %53

53:                                               ; preds = %52
  br label %54

54:                                               ; preds = %53, %32
  %55 = load i64, ptr %10, align 8, !tbaa !11
  %56 = icmp eq i64 -1, %55
  br i1 %56, label %74, label %57

57:                                               ; preds = %54
  %58 = load i64, ptr %10, align 8, !tbaa !11
  %59 = icmp ugt i64 %58, -2
  br i1 %59, label %74, label %60

60:                                               ; preds = %57
  %61 = load i64, ptr %11, align 8, !tbaa !11
  %62 = icmp ugt i64 %61, -2
  br i1 %62, label %74, label %63

63:                                               ; preds = %60
  %64 = load i64, ptr %10, align 8, !tbaa !11
  %65 = load i64, ptr %11, align 8, !tbaa !11
  %66 = add i64 %64, %65
  %67 = icmp eq i64 -1, %66
  br i1 %67, label %74, label %68

68:                                               ; preds = %63
  %69 = load i64, ptr %10, align 8, !tbaa !11
  %70 = load i64, ptr %11, align 8, !tbaa !11
  %71 = add i64 %69, %70
  %72 = load i64, ptr %10, align 8, !tbaa !11
  %73 = icmp ult i64 %71, %72
  br i1 %73, label %74, label %93

74:                                               ; preds = %68, %63, %60, %57, %54
  br label %75

75:                                               ; preds = %74
  br label %76

76:                                               ; preds = %75
  br label %77

77:                                               ; preds = %76
  %78 = load i64, ptr @H5E_IO_g, align 8, !tbaa !11
  %79 = load i64, ptr @H5E_OVERFLOW_g, align 8, !tbaa !11
  %80 = call i32 (ptr, ptr, i32, i64, i64, ptr, ...) @H5E_printf_stack(ptr noundef @.str.1, ptr noundef @__func__.H5FD__core_read, i32 noundef 1296, i64 noundef %78, i64 noundef %79, ptr noundef @.str.42)
  br label %81

81:                                               ; preds = %77
  br label %82

82:                                               ; preds = %81
  store i8 1, ptr %15, align 1, !tbaa !7
  %83 = load i8, ptr %15, align 1, !tbaa !7, !range !9, !noundef !10
  %84 = trunc i8 %83 to i1
  %85 = zext i1 %84 to i8
  store i8 %85, ptr %15, align 1, !tbaa !7
  br label %86

86:                                               ; preds = %82
  br label %87

87:                                               ; preds = %86
  br label %88

88:                                               ; preds = %87
  store i32 -1, ptr %14, align 4, !tbaa !3
  br label %140

89:                                               ; No predecessors!
  br label %90

90:                                               ; preds = %89
  br label %91

91:                                               ; preds = %90
  br label %92

92:                                               ; preds = %91
  br label %93

93:                                               ; preds = %92, %68
  %94 = load i64, ptr %10, align 8, !tbaa !11
  %95 = load ptr, ptr %13, align 8, !tbaa !31
  %96 = getelementptr inbounds nuw %struct.H5FD_core_t, ptr %95, i32 0, i32 4
  %97 = load i64, ptr %96, align 8, !tbaa !61
  %98 = icmp ult i64 %94, %97
  br i1 %98, label %99, label %133

99:                                               ; preds = %93
  call void @llvm.lifetime.start.p0(i64 8, ptr %16) #12
  %100 = load i64, ptr %11, align 8, !tbaa !11
  %101 = load ptr, ptr %13, align 8, !tbaa !31
  %102 = getelementptr inbounds nuw %struct.H5FD_core_t, ptr %101, i32 0, i32 4
  %103 = load i64, ptr %102, align 8, !tbaa !61
  %104 = load i64, ptr %10, align 8, !tbaa !11
  %105 = sub i64 %103, %104
  %106 = icmp ult i64 %100, %105
  br i1 %106, label %107, label %109

107:                                              ; preds = %99
  %108 = load i64, ptr %11, align 8, !tbaa !11
  br label %115

109:                                              ; preds = %99
  %110 = load ptr, ptr %13, align 8, !tbaa !31
  %111 = getelementptr inbounds nuw %struct.H5FD_core_t, ptr %110, i32 0, i32 4
  %112 = load i64, ptr %111, align 8, !tbaa !61
  %113 = load i64, ptr %10, align 8, !tbaa !11
  %114 = sub i64 %112, %113
  br label %115

115:                                              ; preds = %109, %107
  %116 = phi i64 [ %108, %107 ], [ %114, %109 ]
  store i64 %116, ptr %16, align 8, !tbaa !11
  %117 = load ptr, ptr %12, align 8, !tbaa !33
  %118 = load ptr, ptr %13, align 8, !tbaa !31
  %119 = getelementptr inbounds nuw %struct.H5FD_core_t, ptr %118, i32 0, i32 2
  %120 = load ptr, ptr %119, align 8, !tbaa !60
  %121 = load i64, ptr %10, align 8, !tbaa !11
  %122 = getelementptr inbounds nuw i8, ptr %120, i64 %121
  %123 = load i64, ptr %16, align 8, !tbaa !11
  call void @llvm.memcpy.p0.p0.i64(ptr align 1 %117, ptr align 1 %122, i64 %123, i1 false)
  %124 = load i64, ptr %16, align 8, !tbaa !11
  %125 = load i64, ptr %11, align 8, !tbaa !11
  %126 = sub i64 %125, %124
  store i64 %126, ptr %11, align 8, !tbaa !11
  %127 = load i64, ptr %16, align 8, !tbaa !11
  %128 = load i64, ptr %10, align 8, !tbaa !11
  %129 = add i64 %128, %127
  store i64 %129, ptr %10, align 8, !tbaa !11
  %130 = load ptr, ptr %12, align 8, !tbaa !33
  %131 = load i64, ptr %16, align 8, !tbaa !11
  %132 = getelementptr inbounds nuw i8, ptr %130, i64 %131
  store ptr %132, ptr %12, align 8, !tbaa !33
  call void @llvm.lifetime.end.p0(i64 8, ptr %16) #12
  br label %133

133:                                              ; preds = %115, %93
  %134 = load i64, ptr %11, align 8, !tbaa !11
  %135 = icmp ugt i64 %134, 0
  br i1 %135, label %136, label %139

136:                                              ; preds = %133
  %137 = load ptr, ptr %12, align 8, !tbaa !33
  %138 = load i64, ptr %11, align 8, !tbaa !11
  call void @llvm.memset.p0.i64(ptr align 1 %137, i8 0, i64 %138, i1 false)
  br label %139

139:                                              ; preds = %136, %133
  br label %140

140:                                              ; preds = %139, %88, %49
  br label %141

141:                                              ; preds = %140, %24
  %142 = load i32, ptr %14, align 4, !tbaa !3
  call void @llvm.lifetime.end.p0(i64 1, ptr %15) #12
  call void @llvm.lifetime.end.p0(i64 4, ptr %14) #12
  call void @llvm.lifetime.end.p0(i64 8, ptr %13) #12
  ret i32 %142
}