; Function Attrs: nounwind uwtable
define internal range(i32 -1, 1) i32 @H5FD__core_read(ptr noundef readonly captures(none) %0, i32 %1, i64 %2, i64 noundef %3, i64 noundef %4, ptr noundef writeonly captures(none) %5) #0 {
  %7 = load i8, ptr @H5FD_init_g, align 1, !tbaa !3, !range !7, !noundef !8
  %8 = trunc nuw i8 %7 to i1
  %9 = load i8, ptr @H5_libterm_g, align 1, !range !7
  %10 = trunc nuw i8 %9 to i1
  %11 = xor i1 %10, true
  %12 = select i1 %8, i1 true, i1 %11
  br i1 %12, label %13, label %42, !prof !9

13:                                               ; preds = %6
  %14 = icmp eq i64 %3, -1
  br i1 %14, label %15, label %19

15:                                               ; preds = %13
  %16 = load i64, ptr @H5E_IO_g, align 8, !tbaa !10
  %17 = load i64, ptr @H5E_OVERFLOW_g, align 8, !tbaa !10
  %18 = tail call i32 (ptr, ptr, i32, i64, i64, ptr, ...) @H5E_printf_stack(ptr noundef nonnull @.str.1, ptr noundef nonnull @__func__.H5FD__core_read, i32 noundef 1294, i64 noundef %16, i64 noundef %17, ptr noundef nonnull @.str.42) #18
  br label %42

19:                                               ; preds = %13
  %20 = icmp eq i64 %4, -1
  br i1 %20, label %25, label %21

21:                                               ; preds = %19
  %22 = add i64 %4, %3
  %23 = icmp eq i64 %22, -1
  %24 = icmp ult i64 %22, %3
  %or.cond = or i1 %23, %24
  br i1 %or.cond, label %25, label %29

25:                                               ; preds = %19, %21
  %26 = load i64, ptr @H5E_IO_g, align 8, !tbaa !10
  %27 = load i64, ptr @H5E_OVERFLOW_g, align 8, !tbaa !10
  %28 = tail call i32 (ptr, ptr, i32, i64, i64, ptr, ...) @H5E_printf_stack(ptr noundef nonnull @.str.1, ptr noundef nonnull @__func__.H5FD__core_read, i32 noundef 1296, i64 noundef %26, i64 noundef %27, ptr noundef nonnull @.str.42) #18
  br label %42

29:                                               ; preds = %21
  %30 = getelementptr inbounds nuw i8, ptr %0, i64 104
  %31 = load i64, ptr %30, align 8, !tbaa !51
  %32 = icmp ult i64 %3, %31
  br i1 %32, label %33, label %40

33:                                               ; preds = %29
  %34 = sub nuw i64 %31, %3
  %. = tail call i64 @llvm.umin.i64(i64 %4, i64 %34)
  %35 = getelementptr inbounds nuw i8, ptr %0, i64 88
  %36 = load ptr, ptr %35, align 8, !tbaa !50
  %37 = getelementptr inbounds nuw i8, ptr %36, i64 %3
  tail call void @llvm.memcpy.p0.p0.i64(ptr align 1 %5, ptr align 1 %37, i64 %., i1 false)
  %38 = sub i64 %4, %.
  %39 = getelementptr inbounds nuw i8, ptr %5, i64 %.
  br label %40

40:                                               ; preds = %33, %29
  %.037 = phi ptr [ %39, %33 ], [ %5, %29 ]
  %.036 = phi i64 [ %38, %33 ], [ %4, %29 ]
  %.not = icmp eq i64 %.036, 0
  br i1 %.not, label %42, label %41

41:                                               ; preds = %40
  tail call void @llvm.memset.p0.i64(ptr align 1 %.037, i8 0, i64 %.036, i1 false)
  br label %42

42:                                               ; preds = %15, %25, %41, %40, %6
  %.0 = phi i32 [ -1, %15 ], [ -1, %25 ], [ 0, %41 ], [ 0, %40 ], [ 0, %6 ]
  ret i32 %.0
}